target datalayout = "e-m:e-p270:32:32-p271:32:32-p272:64:64-i64:64-i128:128-f80:128-n8:16:32:64-S128"
target triple = "x86_64-pc-linux-gnu"

%struct.H5CX_dxpl_cache_t = type { i64, ptr, ptr, i32, [3 x double], i64, i32, %struct.H5Z_cb_t, ptr, %struct.H5T_vlen_alloc_info_t, %struct.H5T_conv_cb_t, i32, i32, i32, i8 }
%struct.H5Z_cb_t = type { ptr, ptr }
%struct.H5T_vlen_alloc_info_t = type { ptr, ptr, ptr, ptr }
%struct.H5T_conv_cb_t = type { ptr, ptr }
%struct.H5CX_node_t = type { %struct.H5CX_t, ptr }
%struct.H5CX_t = type { i64, ptr, i64, ptr, i64, ptr, i64, ptr, i64, ptr, i64, ptr, i64, i32, i64, i8, ptr, i8, ptr, i8, i32, i8, [3 x double], i8, i64, i8, i32, i8, %struct.H5Z_cb_t, i8, ptr, i8, %struct.H5T_vlen_alloc_info_t, i8, %struct.H5T_conv_cb_t, i8, i32, i8, i8, i8, i32, i8, i8, i32, i8, i8, i32, i8, i32, i8, i64, i8, i8, i8, i8, i8, ptr, i8, ptr, i8, i32, i8, i32, i8, %struct.H5VL_connector_prop_t, i8, ptr, i8 }
%struct.H5VL_connector_prop_t = type { i64, ptr }

@H5CX_def_dxpl_cache = internal global %struct.H5CX_dxpl_cache_t zeroinitializer, align 8
@H5P_LST_DATASET_XFER_ID_g = external global i64, align 8
@.str = private unnamed_addr constant [98 x i8] c"generated/home/dtcxzyw/WorkSpace/Projects/compilers/llvm-opt-benchmark/bench/hdf5/hdf5/src/H5CX.c\00", align 1
@H5E_CONTEXT_g = external global i64, align 8
@H5E_BADTYPE_g = external global i64, align 8
@H5E_CANTGET_g = external global i64, align 8
@.str.20 = private unnamed_addr constant [11 x i8] c"vlen_alloc\00", align 1
@.str.21 = private unnamed_addr constant [38 x i8] c"Can't retrieve VL datatype alloc info\00", align 1
@.str.22 = private unnamed_addr constant [16 x i8] c"vlen_alloc_info\00", align 1
@.str.23 = private unnamed_addr constant [10 x i8] c"vlen_free\00", align 1
@.str.24 = private unnamed_addr constant [15 x i8] c"vlen_free_info\00", align 1
@H5CX_head_g = internal global ptr null, align 8
@.str.76 = private unnamed_addr constant [49 x i8] c"can't get default dataset transfer property list\00", align 1
@__func__.H5CX_get_vlen_alloc_info = private unnamed_addr constant [25 x i8] c"H5CX_get_vlen_alloc_info\00", align 1

; Function Attrs: nounwind uwtable
define i32 @H5CX_get_vlen_alloc_info(ptr noundef %0) #0 {
  %2 = alloca ptr, align 8
  %3 = alloca ptr, align 8
  %4 = alloca i32, align 4
  %5 = alloca i8, align 1
  store ptr %0, ptr %2, align 8
  store ptr null, ptr %3, align 8
  store i32 0, ptr %4, align 4
  store i8 0, ptr %5, align 1
  store ptr @H5CX_head_g, ptr %3, align 8
  %6 = load ptr, ptr %3, align 8
  %7 = load ptr, ptr %6, align 8
  %8 = getelementptr inbounds %struct.H5CX_node_t, ptr %7, i32 0, i32 0
  %9 = getelementptr inbounds %struct.H5CX_t, ptr %8, i32 0, i32 33
  %10 = load i8, ptr %9, align 8
  %11 = trunc i8 %10 to i1
  br i1 %11, label %178, label %12

12:                                               ; preds = %1
  %13 = load ptr, ptr %3, align 8
  %14 = load ptr, ptr %13, align 8
  %15 = getelementptr inbounds %struct.H5CX_node_t, ptr %14, i32 0, i32 0
  %16 = getelementptr inbounds %struct.H5CX_t, ptr %15, i32 0, i32 0
  %17 = load i64, ptr %16, align 8
  %18 = load i64, ptr @H5P_LST_DATASET_XFER_ID_g, align 8
  %19 = icmp eq i64 %17, %18
  br i1 %19, label %20, label %25

20:                                               ; preds = %12
  %21 = load ptr, ptr %3, align 8
  %22 = load ptr, ptr %21, align 8
  %23 = getelementptr inbounds %struct.H5CX_node_t, ptr %22, i32 0, i32 0
  %24 = getelementptr inbounds %struct.H5CX_t, ptr %23, i32 0, i32 32
  call void @llvm.memcpy.p0.p0.i64(ptr align 8 %24, ptr align 8 getelementptr inbounds (%struct.H5CX_dxpl_cache_t, ptr @H5CX_def_dxpl_cache, i32 0, i32 9), i64 32, i1 false)
  br label %173

25:                                               ; preds = %12
  %26 = load ptr, ptr %3, align 8
  %27 = load ptr, ptr %26, align 8
  %28 = getelementptr inbounds %struct.H5CX_node_t, ptr %27, i32 0, i32 0
  %29 = getelementptr inbounds %struct.H5CX_t, ptr %28, i32 0, i32 1
  %30 = load ptr, ptr %29, align 8
  %31 = icmp eq ptr null, %30
  br i1 %31, label %32, label %60

32:                                               ; preds = %25
  %33 = load ptr, ptr %3, align 8
  %34 = load ptr, ptr %33, align 8
  %35 = getelementptr inbounds %struct.H5CX_node_t, ptr %34, i32 0, i32 0
  %36 = getelementptr inbounds %struct.H5CX_t, ptr %35, i32 0, i32 0
  %37 = load i64, ptr %36, align 8
  %38 = call ptr @H5I_object(i64 noundef %37)
  %39 = load ptr, ptr %3, align 8
  %40 = load ptr, ptr %39, align 8
  %41 = getelementptr inbounds %struct.H5CX_node_t, ptr %40, i32 0, i32 0
  %42 = getelementptr inbounds %struct.H5CX_t, ptr %41, i32 0, i32 1
  store ptr %38, ptr %42, align 8
  %43 = icmp eq ptr null, %38
  br i1 %43, label %44, label %59

44:                                               ; preds = %32
  br label %45

45:                                               ; preds = %44
  br label %46

46:                                               ; preds = %45
  br label %47

47:                                               ; preds = %46
  %48 = load i64, ptr @H5E_CONTEXT_g, align 8
  %49 = load i64, ptr @H5E_BADTYPE_g, align 8
  %50 = call i32 (ptr, ptr, i32, i64, i64, ptr, ...) @H5E_printf_stack(ptr noundef @.str, ptr noundef @__func__.H5CX_get_vlen_alloc_info, i32 noundef 2424, i64 noundef %48, i64 noundef %49, ptr noundef @.str.76)
  br label %51

51:                                               ; preds = %47
  store i8 1, ptr %5, align 1
  %52 = load i8, ptr %5, align 1
  %53 = trunc i8 %52 to i1
  %54 = zext i1 %53 to i8
  store i8 %54, ptr %5, align 1
  br label %55

55:                                               ; preds = %51
  br label %56

56:                                               ; preds = %55
  store i32 -1, ptr %4, align 4
  br label %184

57:                                               ; No predecessors!
  br label %58

58:                                               ; preds = %57
  br label %59

59:                                               ; preds = %58, %32
  br label %60

60:                                               ; preds = %59, %25
  %61 = load ptr, ptr %3, align 8
  %62 = load ptr, ptr %61, align 8
  %63 = getelementptr inbounds %struct.H5CX_node_t, ptr %62, i32 0, i32 0
  %64 = getelementptr inbounds %struct.H5CX_t, ptr %63, i32 0, i32 1
  %65 = load ptr, ptr %64, align 8
  %66 = load ptr, ptr %3, align 8
  %67 = load ptr, ptr %66, align 8
  %68 = getelementptr inbounds %struct.H5CX_node_t, ptr %67, i32 0, i32 0
  %69 = getelementptr inbounds %struct.H5CX_t, ptr %68, i32 0, i32 32
  %70 = getelementptr inbounds %struct.H5T_vlen_alloc_info_t, ptr %69, i32 0, i32 0
  %71 = call i32 @H5P_get(ptr noundef %65, ptr noundef @.str.20, ptr noundef %70)
  %72 = icmp slt i32 %71, 0
  br i1 %72, label %73, label %88

73:                                               ; preds = %60
  br label %74

74:                                               ; preds = %73
  br label %75

75:                                               ; preds = %74
  br label %76

76:                                               ; preds = %75
  %77 = load i64, ptr @H5E_CONTEXT_g, align 8
  %78 = load i64, ptr @H5E_CANTGET_g, align 8
  %79 = call i32 (ptr, ptr, i32, i64, i64, ptr, ...) @H5E_printf_stack(ptr noundef @.str, ptr noundef @__func__.H5CX_get_vlen_alloc_info, i32 noundef 2429, i64 noundef %77, i64 noundef %78, ptr noundef @.str.21)
  br label %80

80:                                               ; preds = %76
  store i8 1, ptr %5, align 1
  %81 = load i8, ptr %5, align 1
  %82 = trunc i8 %81 to i1
  %83 = zext i1 %82 to i8
  store i8 %83, ptr %5, align 1
  br label %84

84:                                               ; preds = %80
  br label %85

85:                                               ; preds = %84
  store i32 -1, ptr %4, align 4
  br label %184

86:                                               ; No predecessors!
  br label %87

87:                                               ; preds = %86
  br label %88

88:                                               ; preds = %87, %60
  %89 = load ptr, ptr %3, align 8
  %90 = load ptr, ptr %89, align 8
  %91 = getelementptr inbounds %struct.H5CX_node_t, ptr %90, i32 0, i32 0
  %92 = getelementptr inbounds %struct.H5CX_t, ptr %91, i32 0, i32 1
  %93 = load ptr, ptr %92, align 8
  %94 = load ptr, ptr %3, align 8
  %95 = load ptr, ptr %94, align 8
  %96 = getelementptr inbounds %struct.H5CX_node_t, ptr %95, i32 0, i32 0
  %97 = getelementptr inbounds %struct.H5CX_t, ptr %96, i32 0, i32 32
  %98 = getelementptr inbounds %struct.H5T_vlen_alloc_info_t, ptr %97, i32 0, i32 1
  %99 = call i32 @H5P_get(ptr noundef %93, ptr noundef @.str.22, ptr noundef %98)
  %100 = icmp slt i32 %99, 0
  br i1 %100, label %101, label %116

101:                                              ; preds = %88
  br label %102

102:                                              ; preds = %101
  br label %103

103:                                              ; preds = %102
  br label %104

104:                                              ; preds = %103
  %105 = load i64, ptr @H5E_CONTEXT_g, align 8
  %106 = load i64, ptr @H5E_CANTGET_g, align 8
  %107 = call i32 (ptr, ptr, i32, i64, i64, ptr, ...) @H5E_printf_stack(ptr noundef @.str, ptr noundef @__func__.H5CX_get_vlen_alloc_info, i32 noundef 2432, i64 noundef %105, i64 noundef %106, ptr noundef @.str.21)
  br label %108

108:                                              ; preds = %104
  store i8 1, ptr %5, align 1
  %109 = load i8, ptr %5, align 1
  %110 = trunc i8 %109 to i1
  %111 = zext i1 %110 to i8
  store i8 %111, ptr %5, align 1
  br label %112

112:                                              ; preds = %108
  br label %113

113:                                              ; preds = %112
  store i32 -1, ptr %4, align 4
  br label %184

114:                                              ; No predecessors!
  br label %115

115:                                              ; preds = %114
  br label %116

116:                                              ; preds = %115, %88
  %117 = load ptr, ptr %3, align 8
  %118 = load ptr, ptr %117, align 8
  %119 = getelementptr inbounds %struct.H5CX_node_t, ptr %118, i32 0, i32 0
  %120 = getelementptr inbounds %struct.H5CX_t, ptr %119, i32 0, i32 1
  %121 = load ptr, ptr %120, align 8
  %122 = load ptr, ptr %3, align 8
  %123 = load ptr, ptr %122, align 8
  %124 = getelementptr inbounds %struct.H5CX_node_t, ptr %123, i32 0, i32 0
  %125 = getelementptr inbounds %struct.H5CX_t, ptr %124, i32 0, i32 32
  %126 = getelementptr inbounds %struct.H5T_vlen_alloc_info_t, ptr %125, i32 0, i32 2
  %127 = call i32 @H5P_get(ptr noundef %121, ptr noundef @.str.23, ptr noundef %126)
  %128 = icmp slt i32 %127, 0
  br i1 %128, label %129, label %144

129:                                              ; preds = %116
  br label %130

130:                                              ; preds = %129
  br label %131

131:                                              ; preds = %130
  br label %132

132:                                              ; preds = %131
  %133 = load i64, ptr @H5E_CONTEXT_g, align 8
  %134 = load i64, ptr @H5E_CANTGET_g, align 8
  %135 = call i32 (ptr, ptr, i32, i64, i64, ptr, ...) @H5E_printf_stack(ptr noundef @.str, ptr noundef @__func__.H5CX_get_vlen_alloc_info, i32 noundef 2435, i64 noundef %133, i64 noundef %134, ptr noundef @.str.21)
  br label %136

136:                                              ; preds = %132
  store i8 1, ptr %5, align 1
  %137 = load i8, ptr %5, align 1
  %138 = trunc i8 %137 to i1
  %139 = zext i1 %138 to i8
  store i8 %139, ptr %5, align 1
  br label %140

140:                                              ; preds = %136
  br label %141

141:                                              ; preds = %140
  store i32 -1, ptr %4, align 4
  br label %184

142:                                              ; No predecessors!
  br label %143

143:                                              ; preds = %142
  br label %144

144:                                              ; preds = %143, %116
  %145 = load ptr, ptr %3, align 8
  %146 = load ptr, ptr %145, align 8
  %147 = getelementptr inbounds %struct.H5CX_node_t, ptr %146, i32 0, i32 0
  %148 = getelementptr inbounds %struct.H5CX_t, ptr %147, i32 0, i32 1
  %149 = load ptr, ptr %148, align 8
  %150 = load ptr, ptr %3, align 8
  %151 = load ptr, ptr %150, align 8
  %152 = getelementptr inbounds %struct.H5CX_node_t, ptr %151, i32 0, i32 0
  %153 = getelementptr inbounds %struct.H5CX_t, ptr %152, i32 0, i32 32
  %154 = getelementptr inbounds %struct.H5T_vlen_alloc_info_t, ptr %153, i32 0, i32 3
  %155 = call i32 @H5P_get(ptr noundef %149, ptr noundef @.str.24, ptr noundef %154)
  %156 = icmp slt i32 %155, 0
  br i1 %156, label %157, label %172

157:                                              ; preds = %144
  br label %158

158:                                              ; preds = %157
  br label %159

159:                                              ; preds = %158
  br label %160

160:                                              ; preds = %159
  %161 = load i64, ptr @H5E_CONTEXT_g, align 8
  %162 = load i64, ptr @H5E_CANTGET_g, align 8
  %163 = call i32 (ptr, ptr, i32, i64, i64, ptr, ...) @H5E_printf_stack(ptr noundef @.str, ptr noundef @__func__.H5CX_get_vlen_alloc_info, i32 noundef 2438, i64 noundef %161, i64 noundef %162, ptr noundef @.str.21)
  br label %164

164:                                              ; preds = %160
  store i8 1, ptr %5, align 1
  %165 = load i8, ptr %5, align 1
  %166 = trunc i8 %165 to i1
  %167 = zext i1 %166 to i8
  store i8 %167, ptr %5, align 1
  br label %168

168:                                              ; preds = %164
  br label %169

169:                                              ; preds = %168
  store i32 -1, ptr %4, align 4
  br label %184

170:                                              ; No predecessors!
  br label %171

171:                                              ; preds = %170
  br label %172

172:                                              ; preds = %171, %144
  br label %173

173:                                              ; preds = %172, %20
  %174 = load ptr, ptr %3, align 8
  %175 = load ptr, ptr %174, align 8
  %176 = getelementptr inbounds %struct.H5CX_node_t, ptr %175, i32 0, i32 0
  %177 = getelementptr inbounds %struct.H5CX_t, ptr %176, i32 0, i32 33
  store i8 1, ptr %177, align 8
  br label %178

178:                                              ; preds = %173, %1
  %179 = load ptr, ptr %2, align 8
  %180 = load ptr, ptr %3, align 8
  %181 = load ptr, ptr %180, align 8
  %182 = getelementptr inbounds %struct.H5CX_node_t, ptr %181, i32 0, i32 0
  %183 = getelementptr inbounds %struct.H5CX_t, ptr %182, i32 0, i32 32
  call void @llvm.memcpy.p0.p0.i64(ptr align 8 %179, ptr align 8 %183, i64 32, i1 false)
  br label %184

184:                                              ; preds = %178, %169, %141, %113, %85, %56
  %185 = load i32, ptr %4, align 4
  ret i32 %185
}