; Function Attrs: nounwind uwtable
define range(i32 -1, 1) i32 @H5CX_get_vlen_alloc_info(ptr nocapture noundef writeonly %0) local_unnamed_addr #0 {
  %2 = load ptr, ptr @H5CX_head_g, align 8
  %3 = getelementptr inbounds i8, ptr %2, i64 296
  %4 = load i8, ptr %3, align 8
  %5 = trunc i8 %4 to i1
  br i1 %5, label %71, label %6

6:                                                ; preds = %1
  %7 = load i64, ptr %2, align 8
  %8 = load i64, ptr @H5P_LST_DATASET_XFER_ID_g, align 8
  %9 = icmp eq i64 %7, %8
  br i1 %9, label %10, label %12

10:                                               ; preds = %6
  %11 = getelementptr inbounds i8, ptr %2, i64 264
  tail call void @llvm.memcpy.p0.p0.i64(ptr noundef nonnull align 8 dereferenceable(32) %11, ptr noundef nonnull align 8 dereferenceable(32) getelementptr inbounds (i8, ptr @H5CX_def_dxpl_cache, i64 96), i64 32, i1 false)
  br label %68

12:                                               ; preds = %6
  %13 = getelementptr inbounds i8, ptr %2, i64 8
  %14 = load ptr, ptr %13, align 8
  %15 = icmp eq ptr %14, null
  br i1 %15, label %16, label %25

16:                                               ; preds = %12
  %17 = tail call ptr @H5I_object(i64 noundef %7) #13
  %18 = load ptr, ptr @H5CX_head_g, align 8
  %19 = getelementptr inbounds i8, ptr %18, i64 8
  store ptr %17, ptr %19, align 8
  %20 = icmp eq ptr %17, null
  br i1 %20, label %21, label %25

21:                                               ; preds = %16
  %22 = load i64, ptr @H5E_CONTEXT_g, align 8
  %23 = load i64, ptr @H5E_BADTYPE_g, align 8
  %24 = tail call i32 (ptr, ptr, i32, i64, i64, ptr, ...) @H5E_printf_stack(ptr noundef nonnull @.str, ptr noundef nonnull @__func__.H5CX_get_vlen_alloc_info, i32 noundef 2424, i64 noundef %22, i64 noundef %23, ptr noundef nonnull @.str.76) #13
  br label %74

25:                                               ; preds = %16, %12
  %26 = phi ptr [ %17, %16 ], [ %14, %12 ]
  %27 = phi ptr [ %18, %16 ], [ %2, %12 ]
  %28 = getelementptr inbounds i8, ptr %27, i64 264
  %29 = tail call i32 @H5P_get(ptr noundef nonnull %26, ptr noundef nonnull @.str.20, ptr noundef nonnull %28) #13
  %30 = icmp slt i32 %29, 0
  br i1 %30, label %31, label %35

31:                                               ; preds = %25
  %32 = load i64, ptr @H5E_CONTEXT_g, align 8
  %33 = load i64, ptr @H5E_CANTGET_g, align 8
  %34 = tail call i32 (ptr, ptr, i32, i64, i64, ptr, ...) @H5E_printf_stack(ptr noundef nonnull @.str, ptr noundef nonnull @__func__.H5CX_get_vlen_alloc_info, i32 noundef 2429, i64 noundef %32, i64 noundef %33, ptr noundef nonnull @.str.21) #13
  br label %74

35:                                               ; preds = %25
  %36 = load ptr, ptr @H5CX_head_g, align 8
  %37 = getelementptr inbounds i8, ptr %36, i64 8
  %38 = load ptr, ptr %37, align 8
  %39 = getelementptr inbounds i8, ptr %36, i64 272
  %40 = tail call i32 @H5P_get(ptr noundef %38, ptr noundef nonnull @.str.22, ptr noundef nonnull %39) #13
  %41 = icmp slt i32 %40, 0
  br i1 %41, label %42, label %46

42:                                               ; preds = %35
  %43 = load i64, ptr @H5E_CONTEXT_g, align 8
  %44 = load i64, ptr @H5E_CANTGET_g, align 8
  %45 = tail call i32 (ptr, ptr, i32, i64, i64, ptr, ...) @H5E_printf_stack(ptr noundef nonnull @.str, ptr noundef nonnull @__func__.H5CX_get_vlen_alloc_info, i32 noundef 2432, i64 noundef %43, i64 noundef %44, ptr noundef nonnull @.str.21) #13
  br label %74

46:                                               ; preds = %35
  %47 = load ptr, ptr @H5CX_head_g, align 8
  %48 = getelementptr inbounds i8, ptr %47, i64 8
  %49 = load ptr, ptr %48, align 8
  %50 = getelementptr inbounds i8, ptr %47, i64 280
  %51 = tail call i32 @H5P_get(ptr noundef %49, ptr noundef nonnull @.str.23, ptr noundef nonnull %50) #13
  %52 = icmp slt i32 %51, 0
  br i1 %52, label %53, label %57

53:                                               ; preds = %46
  %54 = load i64, ptr @H5E_CONTEXT_g, align 8
  %55 = load i64, ptr @H5E_CANTGET_g, align 8
  %56 = tail call i32 (ptr, ptr, i32, i64, i64, ptr, ...) @H5E_printf_stack(ptr noundef nonnull @.str, ptr noundef nonnull @__func__.H5CX_get_vlen_alloc_info, i32 noundef 2435, i64 noundef %54, i64 noundef %55, ptr noundef nonnull @.str.21) #13
  br label %74

57:                                               ; preds = %46
  %58 = load ptr, ptr @H5CX_head_g, align 8
  %59 = getelementptr inbounds i8, ptr %58, i64 8
  %60 = load ptr, ptr %59, align 8
  %61 = getelementptr inbounds i8, ptr %58, i64 288
  %62 = tail call i32 @H5P_get(ptr noundef %60, ptr noundef nonnull @.str.24, ptr noundef nonnull %61) #13
  %63 = icmp slt i32 %62, 0
  br i1 %63, label %64, label %._crit_edge

._crit_edge:                                      ; preds = %57
  %.pre = load ptr, ptr @H5CX_head_g, align 8
  br label %68

64:                                               ; preds = %57
  %65 = load i64, ptr @H5E_CONTEXT_g, align 8
  %66 = load i64, ptr @H5E_CANTGET_g, align 8
  %67 = tail call i32 (ptr, ptr, i32, i64, i64, ptr, ...) @H5E_printf_stack(ptr noundef nonnull @.str, ptr noundef nonnull @__func__.H5CX_get_vlen_alloc_info, i32 noundef 2438, i64 noundef %65, i64 noundef %66, ptr noundef nonnull @.str.21) #13
  br label %74

68:                                               ; preds = %._crit_edge, %10
  %69 = phi ptr [ %.pre, %._crit_edge ], [ %2, %10 ]
  %70 = getelementptr inbounds i8, ptr %69, i64 296
  store i8 1, ptr %70, align 8
  br label %71

71:                                               ; preds = %68, %1
  %72 = phi ptr [ %69, %68 ], [ %2, %1 ]
  %73 = getelementptr inbounds i8, ptr %72, i64 264
  tail call void @llvm.memcpy.p0.p0.i64(ptr noundef nonnull align 8 dereferenceable(32) %0, ptr noundef nonnull align 8 dereferenceable(32) %73, i64 32, i1 false)
  br label %74

74:                                               ; preds = %71, %64, %53, %42, %31, %21
  %.0 = phi i32 [ 0, %71 ], [ -1, %21 ], [ -1, %31 ], [ -1, %42 ], [ -1, %53 ], [ -1, %64 ]
  ret i32 %.0
}